; Function Attrs: nounwind uwtable
define noalias nonnull ptr @l_Std_Time_TimeZone_Transition_createTimeZoneFromTransition(ptr noundef readonly captures(none) %0) local_unnamed_addr #1 {
  %2 = getelementptr inbounds nuw i8, ptr %0, i64 16
  %3 = load ptr, ptr %2, align 8, !tbaa !10
  %4 = getelementptr inbounds nuw i8, ptr %3, i64 8
  %5 = load ptr, ptr %4, align 8, !tbaa !10
  %6 = getelementptr inbounds nuw i8, ptr %3, i64 32
  %7 = load i8, ptr %6, align 1, !tbaa !18
  %8 = getelementptr inbounds nuw i8, ptr %3, i64 16
  %9 = load ptr, ptr %8, align 8, !tbaa !10
  %10 = getelementptr inbounds nuw i8, ptr %3, i64 24
  %11 = load ptr, ptr %10, align 8, !tbaa !10
  %12 = ptrtoint ptr %9 to i64
  %13 = and i64 %12, 1
  %.not = icmp eq i64 %13, 0
  br i1 %.not, label %14, label %lean_inc.exit17

14:                                               ; preds = %1
  %.val.i = load i32, ptr %9, align 4, !tbaa !4
  %15 = icmp sgt i32 %.val.i, 0
  br i1 %15, label %16, label %18, !prof !9

16:                                               ; preds = %14
  %17 = add nuw i32 %.val.i, 1
  store i32 %17, ptr %9, align 4, !tbaa !4
  br label %lean_inc.exit17

18:                                               ; preds = %14
  %.not.i = icmp eq i32 %.val.i, 0
  br i1 %.not.i, label %lean_inc.exit17, label %19

19:                                               ; preds = %18
  tail call void @lean_inc_ref_cold(ptr noundef nonnull %9) #6
  br label %lean_inc.exit17

lean_inc.exit17:                                  ; preds = %19, %18, %16, %1
  %20 = ptrtoint ptr %11 to i64
  %21 = and i64 %20, 1
  %.not24 = icmp eq i64 %21, 0
  br i1 %.not24, label %22, label %lean_inc.exit16

22:                                               ; preds = %lean_inc.exit17
  %.val.i18 = load i32, ptr %11, align 4, !tbaa !4
  %23 = icmp sgt i32 %.val.i18, 0
  br i1 %23, label %24, label %26, !prof !9

24:                                               ; preds = %22
  %25 = add nuw i32 %.val.i18, 1
  store i32 %25, ptr %11, align 4, !tbaa !4
  br label %lean_inc.exit16

26:                                               ; preds = %22
  %.not.i19 = icmp eq i32 %.val.i18, 0
  br i1 %.not.i19, label %lean_inc.exit16, label %27

27:                                               ; preds = %26
  tail call void @lean_inc_ref_cold(ptr noundef nonnull %11) #6
  br label %lean_inc.exit16

lean_inc.exit16:                                  ; preds = %27, %26, %24, %lean_inc.exit17
  %28 = ptrtoint ptr %5 to i64
  %29 = and i64 %28, 1
  %.not25 = icmp eq i64 %29, 0
  br i1 %.not25, label %30, label %lean_inc.exit

30:                                               ; preds = %lean_inc.exit16
  %.val.i21 = load i32, ptr %5, align 4, !tbaa !4
  %31 = icmp sgt i32 %.val.i21, 0
  br i1 %31, label %32, label %34, !prof !9

32:                                               ; preds = %30
  %33 = add nuw i32 %.val.i21, 1
  store i32 %33, ptr %5, align 4, !tbaa !4
  br label %lean_inc.exit

34:                                               ; preds = %30
  %.not.i22 = icmp eq i32 %.val.i21, 0
  br i1 %.not.i22, label %lean_inc.exit, label %35

35:                                               ; preds = %34
  tail call void @lean_inc_ref_cold(ptr noundef nonnull %5) #6
  br label %lean_inc.exit

lean_inc.exit:                                    ; preds = %35, %34, %32, %lean_inc.exit16
  tail call void @lean_inc_heartbeat() #6
  %36 = tail call noalias ptr @mi_malloc_small(i64 noundef 40) #6
  %37 = icmp eq ptr %36, null
  br i1 %37, label %38, label %lean_alloc_ctor.exit

38:                                               ; preds = %lean_inc.exit
  tail call void @lean_internal_panic_out_of_memory() #7
  unreachable

lean_alloc_ctor.exit:                             ; preds = %lean_inc.exit
  %39 = getelementptr inbounds nuw i8, ptr %36, i64 4
  %40 = getelementptr inbounds nuw i8, ptr %36, i64 32
  store i64 0, ptr %40, align 8, !tbaa !16
  store i32 1, ptr %36, align 4, !tbaa !4
  store i32 196648, ptr %39, align 4
  %41 = getelementptr inbounds nuw i8, ptr %36, i64 8
  store ptr %5, ptr %41, align 8, !tbaa !10
  %42 = getelementptr inbounds nuw i8, ptr %36, i64 16
  store ptr %11, ptr %42, align 8, !tbaa !10
  %43 = getelementptr inbounds nuw i8, ptr %36, i64 24
  store ptr %9, ptr %43, align 8, !tbaa !10
  store i8 %7, ptr %40, align 1, !tbaa !18
  ret ptr %36
}